; Function Attrs: nounwind uwtable
define noundef i32 @PQresetPoll(ptr noundef %0) local_unnamed_addr #0 {
  %2 = alloca %struct.PGEventConnReset, align 8
  %.not = icmp eq ptr %0, null
  br i1 %.not, label %.loopexit, label %3

3:                                                ; preds = %1
  %4 = tail call i32 @PQconnectPoll(ptr noundef nonnull %0)
  %5 = icmp eq i32 %4, 3
  br i1 %5, label %.preheader, label %.loopexit

.preheader:                                       ; preds = %3
  %6 = getelementptr inbounds nuw i8, ptr %0, i64 408
  %7 = load i32, ptr %6, align 8
  %8 = icmp sgt i32 %7, 0
  br i1 %8, label %.lr.ph, label %.loopexit

.lr.ph:                                           ; preds = %.preheader
  %9 = getelementptr inbounds nuw i8, ptr %0, i64 400
  br label %10

10:                                               ; preds = %.lr.ph, %10
  %indvars.iv = phi i64 [ 0, %.lr.ph ], [ %indvars.iv.next, %10 ]
  call void @llvm.lifetime.start.p0(i64 8, ptr nonnull %2) #25
  store ptr %0, ptr %2, align 8
  %11 = load ptr, ptr %9, align 8
  %12 = getelementptr inbounds nuw %struct.PGEvent, ptr %11, i64 %indvars.iv
  %13 = load ptr, ptr %12, align 8
  %14 = getelementptr inbounds nuw i8, ptr %12, i64 16
  %15 = load ptr, ptr %14, align 8
  %16 = call i32 %13(i32 noundef 1, ptr noundef nonnull %2, ptr noundef %15) #25
  call void @llvm.lifetime.end.p0(i64 8, ptr nonnull %2) #25
  %indvars.iv.next = add nuw nsw i64 %indvars.iv, 1
  %17 = load i32, ptr %6, align 8
  %18 = sext i32 %17 to i64
  %19 = icmp slt i64 %indvars.iv.next, %18
  br i1 %19, label %10, label %.loopexit, !llvm.loop !39

.loopexit:                                        ; preds = %10, %.preheader, %1, %3
  %.012 = phi i32 [ %4, %3 ], [ 0, %1 ], [ 3, %.preheader ], [ 3, %10 ]
  ret i32 %.012
}